; Function Attrs: mustprogress uwtable
define dso_local noundef ptr @_Z13luaL_typenameP9lua_Statei(ptr noundef %0, i32 noundef %1) local_unnamed_addr #2 {
  %3 = tail call noundef ptr @_Z13luaA_toobjectP9lua_Statei(ptr noundef %0, i32 noundef %1)
  %.not = icmp eq ptr %3, null
  br i1 %.not, label %6, label %4

4:                                                ; preds = %2
  %5 = tail call noundef ptr @_Z16luaT_objtypenameP9lua_StatePK10lua_TValue(ptr noundef %0, ptr noundef nonnull %3)
  br label %6

6:                                                ; preds = %2, %4
  %7 = phi ptr [ %5, %4 ], [ @.str.14, %2 ]
  ret ptr %7
}